; ModuleID = 'source-C-CXX/11/392.cpp'
source_filename = "source-C-CXX/11/392.cpp"
target datalayout = "e-m:e-p270:32:32-p271:32:32-p272:64:64-i64:64-f80:128-n8:16:32:64-S128"
target triple = "x86_64-pc-linux-gnu"

%"class.std::ios_base::Init" = type { i8 }
%"class.std::basic_istream" = type { i32 (...)**, i64, %"class.std::basic_ios" }
%"class.std::basic_ios" = type { %"class.std::ios_base", %"class.std::basic_ostream"*, i8, i8, %"class.std::basic_streambuf"*, %"class.std::ctype"*, %"class.std::num_put"*, %"class.std::num_get"* }
%"class.std::ios_base" = type { i32 (...)**, i64, i64, i32, i32, i32, %"struct.std::ios_base::_Callback_list"*, %"struct.std::ios_base::_Words", [8 x %"struct.std::ios_base::_Words"], i32, %"struct.std::ios_base::_Words"*, %"class.std::locale" }
%"struct.std::ios_base::_Callback_list" = type { %"struct.std::ios_base::_Callback_list"*, void (i32, %"class.std::ios_base"*, i32)*, i32, i32 }
%"struct.std::ios_base::_Words" = type { i8*, i64 }
%"class.std::locale" = type { %"class.std::locale::_Impl"* }
%"class.std::locale::_Impl" = type { i32, %"class.std::locale::facet"**, i64, %"class.std::locale::facet"**, i8** }
%"class.std::locale::facet" = type <{ i32 (...)**, i32, [4 x i8] }>
%"class.std::basic_ostream" = type { i32 (...)**, %"class.std::basic_ios" }
%"class.std::basic_streambuf" = type { i32 (...)**, i8*, i8*, i8*, i8*, i8*, i8*, %"class.std::locale" }
%"class.std::ctype" = type <{ %"class.std::locale::facet.base", [4 x i8], %struct.__locale_struct*, i8, [7 x i8], i32*, i32*, i16*, i8, [256 x i8], [256 x i8], i8, [6 x i8] }>
%"class.std::locale::facet.base" = type <{ i32 (...)**, i32 }>
%struct.__locale_struct = type { [13 x %struct.__locale_data*], i16*, i32*, i32*, [13 x i8*] }
%struct.__locale_data = type opaque
%"class.std::num_put" = type { %"class.std::locale::facet.base", [4 x i8] }
%"class.std::num_get" = type { %"class.std::locale::facet.base", [4 x i8] }

@_ZStL8__ioinit = internal global %"class.std::ios_base::Init" zeroinitializer, align 1
@__dso_handle = external hidden global i8
@_ZSt3cin = external global %"class.std::basic_istream", align 8
@_ZSt4cout = external global %"class.std::basic_ostream", align 8
@llvm.global_ctors = appending global [1 x { i32, void ()*, i8* }] [{ i32, void ()*, i8* } { i32 65535, void ()* @_GLOBAL__sub_I_392.cpp, i8* null }]

declare void @_ZNSt8ios_base4InitC1Ev(%"class.std::ios_base::Init"* nonnull align 1 dereferenceable(1)) unnamed_addr #0

; Function Attrs: nounwind
declare void @_ZNSt8ios_base4InitD1Ev(%"class.std::ios_base::Init"* nonnull align 1 dereferenceable(1)) unnamed_addr #1

; Function Attrs: nofree nounwind
declare i32 @__cxa_atexit(void (i8*)*, i8*, i8*) local_unnamed_addr #2

; Function Attrs: mustprogress norecurse sspstrong uwtable
define dso_local i32 @main() local_unnamed_addr #3 {
  %1 = alloca [16 x i32], align 16
  %2 = alloca i32, align 4
  %3 = alloca i32, align 4
  %4 = bitcast [16 x i32]* %1 to i8*
  %5 = bitcast i32* %2 to i8*
  %6 = getelementptr inbounds [16 x i32], [16 x i32]* %1, i64 0, i64 0
  %7 = bitcast i32* %3 to i8*
  call void @llvm.lifetime.start.p0i8(i64 64, i8* nonnull %4) #8
  call void @llvm.lifetime.start.p0i8(i64 4, i8* nonnull %5) #8
  %8 = call nonnull align 8 dereferenceable(16) %"class.std::basic_istream"* @_ZNSirsERi(%"class.std::basic_istream"* nonnull align 8 dereferenceable(16) @_ZSt3cin, i32* nonnull align 4 dereferenceable(4) %2)
  %9 = load i32, i32* %2, align 4, !tbaa !5
  %10 = icmp eq i32 %9, -1
  br i1 %10, label %168, label %11

11:                                               ; preds = %0, %143
  %12 = phi i32 [ %148, %143 ], [ %9, %0 ]
  store i32 %12, i32* %6, align 16, !tbaa !5
  call void @llvm.lifetime.start.p0i8(i64 4, i8* nonnull %7) #8
  %13 = call nonnull align 8 dereferenceable(16) %"class.std::basic_istream"* @_ZNSirsERi(%"class.std::basic_istream"* nonnull align 8 dereferenceable(16) @_ZSt3cin, i32* nonnull align 4 dereferenceable(4) %3)
  %14 = load i32, i32* %3, align 4, !tbaa !5
  %15 = icmp eq i32 %14, 0
  br i1 %15, label %16, label %30

16:                                               ; preds = %30, %11
  %17 = phi i32 [ 1, %11 ], [ %35, %30 ]
  call void @llvm.lifetime.end.p0i8(i64 4, i8* nonnull %7) #8
  %18 = zext i32 %17 to i64
  %19 = and i64 %18, 4294967288
  %20 = add nsw i64 %19, -8
  %21 = lshr exact i64 %20, 3
  %22 = add nuw nsw i64 %21, 1
  %23 = icmp ult i32 %17, 8
  %24 = and i64 %18, 4294967288
  %25 = and i64 %22, 1
  %26 = icmp eq i64 %20, 0
  %27 = and i64 %22, 4611686018427387902
  %28 = icmp eq i64 %25, 0
  %29 = icmp eq i64 %24, %18
  br label %40

30:                                               ; preds = %11, %30
  %31 = phi i64 [ %36, %30 ], [ 1, %11 ]
  %32 = phi i32 [ %38, %30 ], [ %14, %11 ]
  %33 = phi i32 [ %35, %30 ], [ 1, %11 ]
  %34 = getelementptr inbounds [16 x i32], [16 x i32]* %1, i64 0, i64 %31
  store i32 %32, i32* %34, align 4, !tbaa !5
  %35 = add nuw nsw i32 %33, 1
  call void @llvm.lifetime.end.p0i8(i64 4, i8* nonnull %7) #8
  %36 = add nuw i64 %31, 1
  call void @llvm.lifetime.start.p0i8(i64 4, i8* nonnull %7) #8
  %37 = call nonnull align 8 dereferenceable(16) %"class.std::basic_istream"* @_ZNSirsERi(%"class.std::basic_istream"* nonnull align 8 dereferenceable(16) @_ZSt3cin, i32* nonnull align 4 dereferenceable(4) %3)
  %38 = load i32, i32* %3, align 4, !tbaa !5
  %39 = icmp eq i32 %38, 0
  br i1 %39, label %16, label %30, !llvm.loop !9

40:                                               ; preds = %154, %16
  %41 = phi i32 [ %12, %16 ], [ %156, %154 ]
  %42 = phi i64 [ 0, %16 ], [ %152, %154 ]
  %43 = phi i32 [ 0, %16 ], [ %151, %154 ]
  br i1 %23, label %113, label %44

44:                                               ; preds = %40
  %45 = insertelement <4 x i32> <i32 poison, i32 0, i32 0, i32 0>, i32 %43, i32 0
  %46 = insertelement <4 x i32> poison, i32 %41, i32 0
  %47 = shufflevector <4 x i32> %46, <4 x i32> poison, <4 x i32> zeroinitializer
  %48 = insertelement <4 x i32> poison, i32 %41, i32 0
  %49 = shufflevector <4 x i32> %48, <4 x i32> poison, <4 x i32> zeroinitializer
  br i1 %26, label %87, label %50

50:                                               ; preds = %44, %50
  %51 = phi i64 [ %84, %50 ], [ 0, %44 ]
  %52 = phi <4 x i32> [ %82, %50 ], [ %45, %44 ]
  %53 = phi <4 x i32> [ %83, %50 ], [ zeroinitializer, %44 ]
  %54 = phi i64 [ %85, %50 ], [ %27, %44 ]
  %55 = getelementptr inbounds [16 x i32], [16 x i32]* %1, i64 0, i64 %51
  %56 = bitcast i32* %55 to <4 x i32>*
  %57 = load <4 x i32>, <4 x i32>* %56, align 16, !tbaa !5
  %58 = getelementptr inbounds i32, i32* %55, i64 4
  %59 = bitcast i32* %58 to <4 x i32>*
  %60 = load <4 x i32>, <4 x i32>* %59, align 16, !tbaa !5
  %61 = shl nsw <4 x i32> %57, <i32 1, i32 1, i32 1, i32 1>
  %62 = shl nsw <4 x i32> %60, <i32 1, i32 1, i32 1, i32 1>
  %63 = icmp eq <4 x i32> %47, %61
  %64 = icmp eq <4 x i32> %49, %62
  %65 = zext <4 x i1> %63 to <4 x i32>
  %66 = zext <4 x i1> %64 to <4 x i32>
  %67 = add <4 x i32> %52, %65
  %68 = add <4 x i32> %53, %66
  %69 = or i64 %51, 8
  %70 = getelementptr inbounds [16 x i32], [16 x i32]* %1, i64 0, i64 %69
  %71 = bitcast i32* %70 to <4 x i32>*
  %72 = load <4 x i32>, <4 x i32>* %71, align 16, !tbaa !5
  %73 = getelementptr inbounds i32, i32* %70, i64 4
  %74 = bitcast i32* %73 to <4 x i32>*
  %75 = load <4 x i32>, <4 x i32>* %74, align 16, !tbaa !5
  %76 = shl nsw <4 x i32> %72, <i32 1, i32 1, i32 1, i32 1>
  %77 = shl nsw <4 x i32> %75, <i32 1, i32 1, i32 1, i32 1>
  %78 = icmp eq <4 x i32> %47, %76
  %79 = icmp eq <4 x i32> %49, %77
  %80 = zext <4 x i1> %78 to <4 x i32>
  %81 = zext <4 x i1> %79 to <4 x i32>
  %82 = add <4 x i32> %67, %80
  %83 = add <4 x i32> %68, %81
  %84 = add nuw i64 %51, 16
  %85 = add i64 %54, -2
  %86 = icmp eq i64 %85, 0
  br i1 %86, label %87, label %50, !llvm.loop !11

87:                                               ; preds = %50, %44
  %88 = phi <4 x i32> [ undef, %44 ], [ %82, %50 ]
  %89 = phi <4 x i32> [ undef, %44 ], [ %83, %50 ]
  %90 = phi i64 [ 0, %44 ], [ %84, %50 ]
  %91 = phi <4 x i32> [ %45, %44 ], [ %82, %50 ]
  %92 = phi <4 x i32> [ zeroinitializer, %44 ], [ %83, %50 ]
  br i1 %28, label %108, label %93

93:                                               ; preds = %87
  %94 = getelementptr inbounds [16 x i32], [16 x i32]* %1, i64 0, i64 %90
  %95 = getelementptr inbounds i32, i32* %94, i64 4
  %96 = bitcast i32* %95 to <4 x i32>*
  %97 = load <4 x i32>, <4 x i32>* %96, align 16, !tbaa !5
  %98 = shl nsw <4 x i32> %97, <i32 1, i32 1, i32 1, i32 1>
  %99 = icmp eq <4 x i32> %49, %98
  %100 = zext <4 x i1> %99 to <4 x i32>
  %101 = add <4 x i32> %92, %100
  %102 = bitcast i32* %94 to <4 x i32>*
  %103 = load <4 x i32>, <4 x i32>* %102, align 16, !tbaa !5
  %104 = shl nsw <4 x i32> %103, <i32 1, i32 1, i32 1, i32 1>
  %105 = icmp eq <4 x i32> %47, %104
  %106 = zext <4 x i1> %105 to <4 x i32>
  %107 = add <4 x i32> %91, %106
  br label %108

108:                                              ; preds = %87, %93
  %109 = phi <4 x i32> [ %88, %87 ], [ %107, %93 ]
  %110 = phi <4 x i32> [ %89, %87 ], [ %101, %93 ]
  %111 = add <4 x i32> %110, %109
  %112 = call i32 @llvm.vector.reduce.add.v4i32(<4 x i32> %111)
  br i1 %29, label %150, label %113

113:                                              ; preds = %40, %108
  %114 = phi i64 [ 0, %40 ], [ %24, %108 ]
  %115 = phi i32 [ %43, %40 ], [ %112, %108 ]
  br label %157

116:                                              ; preds = %150
  %117 = call nonnull align 8 dereferenceable(8) %"class.std::basic_ostream"* @_ZNSolsEi(%"class.std::basic_ostream"* nonnull align 8 dereferenceable(8) @_ZSt4cout, i32 %151)
  %118 = bitcast %"class.std::basic_ostream"* %117 to i8**
  %119 = load i8*, i8** %118, align 8, !tbaa !13
  %120 = getelementptr i8, i8* %119, i64 -24
  %121 = bitcast i8* %120 to i64*
  %122 = load i64, i64* %121, align 8
  %123 = bitcast %"class.std::basic_ostream"* %117 to i8*
  %124 = add nsw i64 %122, 240
  %125 = getelementptr inbounds i8, i8* %123, i64 %124
  %126 = bitcast i8* %125 to %"class.std::ctype"**
  %127 = load %"class.std::ctype"*, %"class.std::ctype"** %126, align 8, !tbaa !15
  %128 = icmp eq %"class.std::ctype"* %127, null
  br i1 %128, label %129, label %130

129:                                              ; preds = %116
  call void @_ZSt16__throw_bad_castv() #9
  unreachable

130:                                              ; preds = %116
  %131 = getelementptr inbounds %"class.std::ctype", %"class.std::ctype"* %127, i64 0, i32 8
  %132 = load i8, i8* %131, align 8, !tbaa !19
  %133 = icmp eq i8 %132, 0
  br i1 %133, label %137, label %134

134:                                              ; preds = %130
  %135 = getelementptr inbounds %"class.std::ctype", %"class.std::ctype"* %127, i64 0, i32 9, i64 10
  %136 = load i8, i8* %135, align 1, !tbaa !21
  br label %143

137:                                              ; preds = %130
  call void @_ZNKSt5ctypeIcE13_M_widen_initEv(%"class.std::ctype"* nonnull align 8 dereferenceable(570) %127)
  %138 = bitcast %"class.std::ctype"* %127 to i8 (%"class.std::ctype"*, i8)***
  %139 = load i8 (%"class.std::ctype"*, i8)**, i8 (%"class.std::ctype"*, i8)*** %138, align 8, !tbaa !13
  %140 = getelementptr inbounds i8 (%"class.std::ctype"*, i8)*, i8 (%"class.std::ctype"*, i8)** %139, i64 6
  %141 = load i8 (%"class.std::ctype"*, i8)*, i8 (%"class.std::ctype"*, i8)** %140, align 8
  %142 = call signext i8 %141(%"class.std::ctype"* nonnull align 8 dereferenceable(570) %127, i8 signext 10)
  br label %143

143:                                              ; preds = %134, %137
  %144 = phi i8 [ %136, %134 ], [ %142, %137 ]
  %145 = call nonnull align 8 dereferenceable(8) %"class.std::basic_ostream"* @_ZNSo3putEc(%"class.std::basic_ostream"* nonnull align 8 dereferenceable(8) %117, i8 signext %144)
  %146 = call nonnull align 8 dereferenceable(8) %"class.std::basic_ostream"* @_ZNSo5flushEv(%"class.std::basic_ostream"* nonnull align 8 dereferenceable(8) %145)
  call void @llvm.lifetime.end.p0i8(i64 4, i8* nonnull %5) #8
  call void @llvm.lifetime.end.p0i8(i64 64, i8* nonnull %4) #8
  call void @llvm.lifetime.start.p0i8(i64 64, i8* nonnull %4) #8
  call void @llvm.lifetime.start.p0i8(i64 4, i8* nonnull %5) #8
  %147 = call nonnull align 8 dereferenceable(16) %"class.std::basic_istream"* @_ZNSirsERi(%"class.std::basic_istream"* nonnull align 8 dereferenceable(16) @_ZSt3cin, i32* nonnull align 4 dereferenceable(4) %2)
  %148 = load i32, i32* %2, align 4, !tbaa !5
  %149 = icmp eq i32 %148, -1
  br i1 %149, label %168, label %11, !llvm.loop !22

150:                                              ; preds = %157, %108
  %151 = phi i32 [ %112, %108 ], [ %165, %157 ]
  %152 = add nuw nsw i64 %42, 1
  %153 = icmp eq i64 %152, %18
  br i1 %153, label %116, label %154, !llvm.loop !23

154:                                              ; preds = %150
  %155 = getelementptr inbounds [16 x i32], [16 x i32]* %1, i64 0, i64 %152
  %156 = load i32, i32* %155, align 4, !tbaa !5
  br label %40

157:                                              ; preds = %113, %157
  %158 = phi i64 [ %166, %157 ], [ %114, %113 ]
  %159 = phi i32 [ %165, %157 ], [ %115, %113 ]
  %160 = getelementptr inbounds [16 x i32], [16 x i32]* %1, i64 0, i64 %158
  %161 = load i32, i32* %160, align 4, !tbaa !5
  %162 = shl nsw i32 %161, 1
  %163 = icmp eq i32 %41, %162
  %164 = zext i1 %163 to i32
  %165 = add nsw i32 %159, %164
  %166 = add nuw nsw i64 %158, 1
  %167 = icmp eq i64 %166, %18
  br i1 %167, label %150, label %157, !llvm.loop !24

168:                                              ; preds = %143, %0
  call void @llvm.lifetime.end.p0i8(i64 4, i8* nonnull %5) #8
  call void @llvm.lifetime.end.p0i8(i64 64, i8* nonnull %4) #8
  ret i32 0
}

; Function Attrs: argmemonly mustprogress nofree nosync nounwind willreturn
declare void @llvm.lifetime.start.p0i8(i64 immarg, i8* nocapture) #4

declare nonnull align 8 dereferenceable(16) %"class.std::basic_istream"* @_ZNSirsERi(%"class.std::basic_istream"* nonnull align 8 dereferenceable(16), i32* nonnull align 4 dereferenceable(4)) local_unnamed_addr #0

; Function Attrs: argmemonly mustprogress nofree nosync nounwind willreturn
declare void @llvm.lifetime.end.p0i8(i64 immarg, i8* nocapture) #4

declare nonnull align 8 dereferenceable(8) %"class.std::basic_ostream"* @_ZNSolsEi(%"class.std::basic_ostream"* nonnull align 8 dereferenceable(8), i32) local_unnamed_addr #0

declare nonnull align 8 dereferenceable(8) %"class.std::basic_ostream"* @_ZNSo3putEc(%"class.std::basic_ostream"* nonnull align 8 dereferenceable(8), i8 signext) local_unnamed_addr #0

declare nonnull align 8 dereferenceable(8) %"class.std::basic_ostream"* @_ZNSo5flushEv(%"class.std::basic_ostream"* nonnull align 8 dereferenceable(8)) local_unnamed_addr #0

; Function Attrs: noreturn
declare void @_ZSt16__throw_bad_castv() local_unnamed_addr #5

declare void @_ZNKSt5ctypeIcE13_M_widen_initEv(%"class.std::ctype"* nonnull align 8 dereferenceable(570)) local_unnamed_addr #0

; Function Attrs: sspstrong uwtable
define internal void @_GLOBAL__sub_I_392.cpp() #6 section ".text.startup" {
  tail call void @_ZNSt8ios_base4InitC1Ev(%"class.std::ios_base::Init"* nonnull align 1 dereferenceable(1) @_ZStL8__ioinit)
  %1 = tail call i32 @__cxa_atexit(void (i8*)* bitcast (void (%"class.std::ios_base::Init"*)* @_ZNSt8ios_base4InitD1Ev to void (i8*)*), i8* getelementptr inbounds (%"class.std::ios_base::Init", %"class.std::ios_base::Init"* @_ZStL8__ioinit, i64 0, i32 0), i8* nonnull @__dso_handle) #8
  ret void
}

; Function Attrs: nofree nosync nounwind readnone willreturn
declare i32 @llvm.vector.reduce.add.v4i32(<4 x i32>) #7


!llvm.module.flags = !{!0, !1, !2, !3}
!llvm.ident = !{!4}

!0 = !{i32 1, !"wchar_size", i32 4}
!1 = !{i32 7, !"PIC Level", i32 2}
!2 = !{i32 7, !"PIE Level", i32 2}
!3 = !{i32 7, !"uwtable", i32 1}
!4 = !{!"clang version 13.0.0"}
!5 = !{!6, !6, i64 0}
!6 = !{!"int", !7, i64 0}
!7 = !{!"omnipotent char", !8, i64 0}
!8 = !{!"Simple C++ TBAA"}
!9 = distinct !{!9, !10}
!10 = !{!"llvm.loop.mustprogress"}
!11 = distinct !{!11, !10, !12}
!12 = !{!"llvm.loop.isvectorized", i32 1}
!13 = !{!14, !14, i64 0}
!14 = !{!"vtable pointer", !8, i64 0}
!15 = !{!16, !17, i64 240}
!16 = !{!"_ZTSSt9basic_iosIcSt11char_traitsIcEE", !17, i64 216, !7, i64 224, !18, i64 225, !17, i64 232, !17, i64 240, !17, i64 248, !17, i64 256}
!17 = !{!"any pointer", !7, i64 0}
!18 = !{!"bool", !7, i64 0}
!19 = !{!20, !7, i64 56}
!20 = !{!"_ZTSSt5ctypeIcE", !17, i64 16, !18, i64 24, !17, i64 32, !17, i64 40, !17, i64 48, !7, i64 56, !7, i64 57, !7, i64 313, !7, i64 569}
!21 = !{!7, !7, i64 0}
!22 = distinct !{!22, !10}
!23 = distinct !{!23, !10}
!24 = distinct !{!24, !10, !25, !12}
!25 = !{!"llvm.loop.unroll.runtime.disable"}
